Certificate:
    Data:
        Version: 3 (0x2)
        Serial Number:
            f9:d1:0d:32:bd:8e:5f:af:ae:a3:b4:9f:c2:1e:4a:c9
        Signature Algorithm: sha256WithRSAEncryption
        Issuer: CN=Test Subordinate CA
        Validity
            Not Before: Mar 13 13:26:43 2022 GMT
            Not After : Mar 13 13:26:43 2023 GMT
        Subject: C=AU, ST=Some-State, O=Internet Widgits Pty Ltd, CN=python-t-eaddy
        Subject Public Key Info:
            Public Key Algorithm: rsaEncryption
                Public-Key: (2048 bit)
                Modulus:
                    00:c7:e9:5e:54:7d:76:f6:e2:bd:17:a1:c7:2a:a5:
                    e4:72:e3:4c:ba:7f:13:c6:bd:c6:17:01:60:eb:7a:
                    4f:6c:18:5c:19:ff:54:13:6a:fa:ae:68:b7:32:b2:
                    dd:27:26:fb:d5:1c:42:d9:bc:cc:1c:18:86:db:04:
                    c0:4b:2b:2d:c1:c9:27:34:d9:3f:4b:3a:6c:fa:9a:
                    06:f0:4b:1b:5c:a8:17:d9:66:f6:e7:4e:68:bf:9e:
                    ee:1b:9d:c8:b7:b2:ce:6a:56:af:da:c4:7f:87:e0:
                    62:d8:b0:05:34:a9:4b:3f:b5:1d:77:2b:07:f3:cf:
                    05:8d:19:f3:a9:b2:7b:08:31:82:13:a0:d1:a6:78:
                    30:e8:7a:c0:74:9c:43:c2:51:45:7d:00:ea:92:70:
                    95:a6:99:0e:81:0b:aa:48:cb:d3:02:c2:e6:7b:68:
                    a8:a3:99:e6:f1:0e:f6:53:e9:fc:22:e1:50:10:ad:
                    d7:8c:48:33:e3:6d:db:1c:66:ab:2e:2a:c7:53:bd:
                    dc:ca:1b:69:b4:06:4d:9d:28:64:2c:41:ea:0a:9a:
                    b4:c4:de:8c:3c:14:30:19:9b:f1:06:20:88:fb:a4:
                    4c:49:5b:7e:fa:6f:cc:cd:e8:82:bf:24:98:4d:43:
                    51:70:e1:2e:7b:ee:61:59:16:fb:bb:ed:81:c0:45:
                    4a:8f
                Exponent: 65537 (0x10001)
        X509v3 extensions:
            X509v3 Authority Key Identifier: 
                89:C7:04:6E:FE:9E:CB:91:B9:F9:6C:D7:1F:EA:7D:2E:71:AF:C0:A2
            X509v3 Basic Constraints: critical
                CA:FALSE
            X509v3 Extended Key Usage: 
                TLS Web Client Authentication
            X509v3 Key Usage: critical
                Digital Signature
            X509v3 Subject Key Identifier: 
                31:97:0A:50:3F:CA:48:4B:C9:6C:D5:92:41:EA:FB:8E:4C:39:18:0E
    Signature Algorithm: sha256WithRSAEncryption
    Signature Value:
        0a:51:bb:2d:b1:86:0f:38:3c:a5:f7:24:e1:4a:d9:ef:e3:f0:
        2b:c2:b5:c1:57:8c:e8:2d:2f:6e:b5:4b:d4:9e:71:c0:70:55:
        06:58:95:fb:03:81:5f:3d:36:f7:e0:c9:ce:9e:bd:ab:4b:62:
        7e:65:12:0e:71:15:27:a5:1e:fd:b3:3a:39:91:f9:08:97:c0:
        7d:f1:6b:6d:c7:5d:22:08:74:e6:98:2f:80:ac:5c:a3:9e:1b:
        10:2a:f3:f0:b5:d9:70:35:0d:99:9a:58:b8:52:50:e4:ee:d8:
        f0:fe:24:25:8c:f3:f2:06:fd:ee:de:36:65:73:ef:e1:c9:77:
        b6:2f:57:2d:ea:f6:2e:f6:bd:ee:b0:69:a3:94:ba:9d:bf:96:
        30:1b:ad:b9:90:63:4c:7e:cd:2a:55:3b:91:c4:22:d4:ea:85:
        78:24:46:97:80:a4:e2:eb:2d:6f:13:ab:34:4a:ee:8d:72:02:
        4b:03:98:d7:1a:51:3a:3c:50:3a:78:04:2e:5b:46:b6:4a:4f:
        5c:bb:43:78:3c:c7:1f:d4:c3:7d:52:cc:cd:5c:85:d3:2e:02:
        5a:16:6f:42:f8:c0:c8:aa:ef:06:57:a3:60:d8:1b:b7:e5:e8:
        21:28:8a:46:e4:d3:1c:c1:93:05:51:c2:0f:21:0b:b7:04:9d:
        33:b1:57:48
-----BEGIN CERTIFICATE-----
MIIDfDCCAmSgAwIBAgIRAPnRDTK9jl+vrqO0n8IeSskwDQYJKoZIhvcNAQELBQAw
HjEcMBoGA1UEAwwTVGVzdCBTdWJvcmRpbmF0ZSBDQTAeFw0yMjAzMTMxMzI2NDNa
Fw0yMzAzMTMxMzI2NDNaMF4xCzAJBgNVBAYTAkFVMRMwEQYDVQQIDApTb21lLVN0
YXRlMSEwHwYDVQQKDBhJbnRlcm5ldCBXaWRnaXRzIFB0eSBMdGQxFzAVBgNVBAMM
DnB5dGhvbi10LWVhZGR5MIIBIjANBgkqhkiG9w0BAQEFAAOCAQ8AMIIBCgKCAQEA
x+leVH129uK9F6HHKqXkcuNMun8Txr3GFwFg63pPbBhcGf9UE2r6rmi3MrLdJyb7
1RxC2bzMHBiG2wTASystwcknNNk/Szps+poG8EsbXKgX2Wb2505ov57uG53It7LO
alav2sR/h+Bi2LAFNKlLP7UddysH888FjRnzqbJ7CDGCE6DRpngw6HrAdJxDwlFF
fQDqknCVppkOgQuqSMvTAsLme2ioo5nm8Q72U+n8IuFQEK3XjEgz423bHGarLirH
U73cyhtptAZNnShkLEHqCpq0xN6MPBQwGZvxBiCI+6RMSVt++m/MzeiCvySYTUNR
cOEue+5hWRb7u+2BwEVKjwIDAQABo3UwczAfBgNVHSMEGDAWgBSJxwRu/p7Lkbn5
bNcf6n0uca/AojAMBgNVHRMBAf8EAjAAMBMGA1UdJQQMMAoGCCsGAQUFBwMCMA4G
A1UdDwEB/wQEAwIHgDAdBgNVHQ4EFgQUMZcKUD/KSEvJbNWSQer7jkw5GA4wDQYJ
KoZIhvcNAQELBQADggEBAApRuy2xhg84PKX3JOFK2e/j8CvCtcFXjOgtL261S9Se
ccBwVQZYlfsDgV89Nvfgyc6evatLYn5lEg5xFSelHv2zOjmR+QiXwH3xa23HXSII
dOaYL4CsXKOeGxAq8/C12XA1DZmaWLhSUOTu2PD+JCWM8/IG/e7eNmVz7+HJd7Yv
Vy3q9i72ve6waaOUup2/ljAbrbmQY0x+zSpVO5HEItTqhXgkRpeApOLrLW8TqzRK
7o1yAksDmNcaUTo8UDp4BC5bRrZKT1y7Q3g8xx/Uw31SzM1chdMuAloWb0L4wMiq
7wZXo2DYG7fl6CEoikbk0xzBkwVRwg8hC7cEnTOxV0g=
-----END CERTIFICATE-----
